cnumpy.core.multiarray
_reconstruct
p0
(cnumpy
ndarray
p1
(I0
tp2
S'b'
p3
tp4
Rp5
(I1
(I48
tp6
cnumpy
dtype
p7
(S'S2'
p8
I0
I1
tp9
Rp10
(I3
S'|'
p11
NNNI2
I1
I0
tp12
bI00
S'381237173534361217123818381213173633331733381212341312131838353518351233133613121712121238381312'
p13
tp14
b.